target datalayout = "e-m:e-p270:32:32-p271:32:32-p272:64:64-i64:64-i128:128-f80:128-n8:16:32:64-S128"
target triple = "x86_64-pc-linux-gnu"

@.str.151 = private unnamed_addr constant [41 x i8] c"Wrong length (%d) of 6-var truth table.\0A\00", align 1

; Function Attrs: nounwind uwtable
define void @Abc_NtkShow6VarFunc(ptr noundef %0, ptr noundef %1) #0 {
  %3 = alloca ptr, align 8
  %4 = alloca ptr, align 8
  %5 = alloca i64, align 8
  %6 = alloca i64, align 8
  store ptr %0, ptr %3, align 8
  store ptr %1, ptr %4, align 8
  %7 = load ptr, ptr %3, align 8
  %8 = call i64 @strlen(ptr noundef %7) #12
  %9 = icmp ne i64 %8, 16
  br i1 %9, label %10, label %15

10:                                               ; preds = %2
  %11 = load ptr, ptr %3, align 8
  %12 = call i64 @strlen(ptr noundef %11) #12
  %13 = trunc i64 %12 to i32
  %14 = call i32 (ptr, ...) @printf(ptr noundef @.str.151, i32 noundef %13)
  br label %31

15:                                               ; preds = %2
  %16 = load ptr, ptr %4, align 8
  %17 = call i64 @strlen(ptr noundef %16) #12
  %18 = icmp ne i64 %17, 16
  br i1 %18, label %19, label %24

19:                                               ; preds = %15
  %20 = load ptr, ptr %4, align 8
  %21 = call i64 @strlen(ptr noundef %20) #12
  %22 = trunc i64 %21 to i32
  %23 = call i32 (ptr, ...) @printf(ptr noundef @.str.151, i32 noundef %22)
  br label %31

24:                                               ; preds = %15
  %25 = load ptr, ptr %3, align 8
  %26 = call i32 @Extra_ReadHexadecimal(ptr noundef %5, ptr noundef %25, i32 noundef 6)
  %27 = load ptr, ptr %4, align 8
  %28 = call i32 @Extra_ReadHexadecimal(ptr noundef %6, ptr noundef %27, i32 noundef 6)
  %29 = load i64, ptr %5, align 8
  %30 = load i64, ptr %6, align 8
  call void @Abc_Show6VarFunc(i64 noundef %29, i64 noundef %30)
  br label %31

31:                                               ; preds = %24, %19, %10
  ret void
}