; Function Attrs: nounwind uwtable
define void @Abc_NtkShow6VarFunc(ptr noundef %0, ptr noundef %1) local_unnamed_addr #0 {
  %3 = alloca i64, align 8
  %4 = alloca i64, align 8
  %5 = tail call i64 @strlen(ptr noundef nonnull dereferenceable(1) %0) #20
  %.not = icmp eq i64 %5, 16
  br i1 %.not, label %9, label %6

6:                                                ; preds = %2
  %7 = trunc i64 %5 to i32
  %8 = tail call i32 (ptr, ...) @printf(ptr noundef nonnull dereferenceable(1) @.str.151, i32 noundef %7)
  br label %19

9:                                                ; preds = %2
  %10 = tail call i64 @strlen(ptr noundef nonnull dereferenceable(1) %1) #20
  %.not7 = icmp eq i64 %10, 16
  br i1 %.not7, label %14, label %11

11:                                               ; preds = %9
  %12 = trunc i64 %10 to i32
  %13 = tail call i32 (ptr, ...) @printf(ptr noundef nonnull dereferenceable(1) @.str.151, i32 noundef %12)
  br label %19

14:                                               ; preds = %9
  %15 = call i32 @Extra_ReadHexadecimal(ptr noundef nonnull %3, ptr noundef nonnull %0, i32 noundef 6) #19
  %16 = call i32 @Extra_ReadHexadecimal(ptr noundef nonnull %4, ptr noundef nonnull %1, i32 noundef 6) #19
  %17 = load i64, ptr %3, align 8
  %18 = load i64, ptr %4, align 8
  call void @Abc_Show6VarFunc(i64 noundef %17, i64 noundef %18)
  br label %19

19:                                               ; preds = %14, %11, %6
  ret void
}